; Function Attrs: nounwind uwtable
define internal fastcc noundef ptr @zend_get_halt_offset_constant(ptr noundef readonly captures(none) %0, i64 noundef %1) unnamed_addr #0 {
  %3 = load ptr, ptr getelementptr inbounds nuw (i8, ptr @executor_globals, i64 512), align 8, !tbaa !58
  %.not = icmp ne ptr %3, null
  %4 = icmp eq i64 %1, 24
  %or.cond = and i1 %4, %.not
  br i1 %or.cond, label %5, label %14

5:                                                ; preds = %2
  %bcmp = tail call i32 @bcmp(ptr noundef nonnull dereferenceable(24) %0, ptr noundef nonnull dereferenceable(24) @.str.13, i64 24)
  %.not8 = icmp eq i32 %bcmp, 0
  br i1 %.not8, label %6, label %14

6:                                                ; preds = %5
  %7 = tail call ptr @zend_get_executed_filename() #11
  %8 = tail call i64 @strlen(ptr noundef nonnull dereferenceable(1) %7) #13
  %9 = tail call ptr @zend_mangle_property_name(ptr noundef nonnull @.str.13, i64 noundef 24, ptr noundef nonnull %7, i64 noundef %8, i1 noundef zeroext false) #11
  %10 = load ptr, ptr getelementptr inbounds nuw (i8, ptr @executor_globals, i64 472), align 8, !tbaa !17
  %11 = tail call ptr @zend_hash_find(ptr noundef %10, ptr noundef %9) #11
  %.not.i = icmp eq ptr %11, null
  br i1 %.not.i, label %zend_hash_find_ptr.exit, label %12

12:                                               ; preds = %6
  %13 = load ptr, ptr %11, align 8, !tbaa !4, !nonnull !49, !noundef !49
  br label %zend_hash_find_ptr.exit

zend_hash_find_ptr.exit:                          ; preds = %6, %12
  %.0.i = phi ptr [ %13, %12 ], [ null, %6 ]
  tail call void @_efree(ptr noundef %9) #11
  br label %14

14:                                               ; preds = %5, %2, %zend_hash_find_ptr.exit
  %.0 = phi ptr [ %.0.i, %zend_hash_find_ptr.exit ], [ null, %2 ], [ null, %5 ]
  ret ptr %.0
}